target datalayout = "e-m:e-p270:32:32-p271:32:32-p272:64:64-i64:64-i128:128-f80:128-n8:16:32:64-S128"
target triple = "x86_64-pc-linux-gnu"

%"class.icu_77::ICUServiceKey" = type { %"class.icu_77::UObject", %"class.icu_77::UnicodeString" }
%"class.icu_77::UObject" = type { ptr }
%"class.icu_77::UnicodeString" = type { %"class.icu_77::Replaceable", %"union.icu_77::UnicodeString::StackBufferOrFields" }
%"class.icu_77::Replaceable" = type { %"class.icu_77::UObject" }
%"union.icu_77::UnicodeString::StackBufferOrFields" = type { %struct.anon.0, [32 x i8] }
%struct.anon.0 = type { i16, i32, i32, ptr }

@_ZTVN6icu_777UObjectE = available_externally unnamed_addr constant { [5 x ptr] } { [5 x ptr] [ptr null, ptr @_ZTIN6icu_777UObjectE, ptr @_ZN6icu_777UObjectD1Ev, ptr @_ZN6icu_777UObjectD0Ev, ptr @_ZNK6icu_777UObject17getDynamicClassIDEv] }, align 8

; Function Attrs: inlinehint mustprogress nounwind uwtable
define linkonce_odr void @_ZN6icu_777UObjectC2Ev(ptr noundef nonnull align 8 dereferenceable(8) %0) unnamed_addr #1 comdat align 2 {
  %2 = alloca ptr, align 8
  store ptr %0, ptr %2, align 8, !tbaa !12
  %3 = load ptr, ptr %2, align 8
  store ptr getelementptr inbounds inrange(-16, 24) ({ [5 x ptr] }, ptr @_ZTVN6icu_777UObjectE, i32 0, i32 0, i32 2), ptr %3, align 8, !tbaa !10
  ret void
}

; Function Attrs: mustprogress uwtable
define void @_ZN6icu_7713ICUServiceKeyC2ERKNS_13UnicodeStringE(ptr noundef nonnull align 8 dereferenceable(72) %0, ptr noundef nonnull align 8 dereferenceable(64) %1) unnamed_addr #0 align 2 personality ptr @__gxx_personality_v0 {
  %3 = alloca ptr, align 8
  %4 = alloca ptr, align 8
  %5 = alloca ptr, align 8
  %6 = alloca i32, align 4
  store ptr %0, ptr %3, align 8, !tbaa !3
  store ptr %1, ptr %4, align 8, !tbaa !8
  %7 = load ptr, ptr %3, align 8
  call void @_ZN6icu_777UObjectC2Ev(ptr noundef nonnull align 8 dereferenceable(8) %7) #10
  store ptr getelementptr inbounds inrange(-16, 80) ({ [12 x ptr] }, ptr @_ZTVN6icu_7713ICUServiceKeyE, i32 0, i32 0, i32 2), ptr %7, align 8, !tbaa !10
  %8 = getelementptr inbounds nuw %"class.icu_77::ICUServiceKey", ptr %7, i32 0, i32 1
  %9 = load ptr, ptr %4, align 8, !tbaa !8
  invoke void @_ZN6icu_7713UnicodeStringC1ERKS0_(ptr noundef nonnull align 8 dereferenceable(64) %8, ptr noundef nonnull align 8 dereferenceable(64) %9)
          to label %10 unwind label %11

10:                                               ; preds = %2
  ret void

11:                                               ; preds = %2
  %12 = landingpad { ptr, i32 }
          cleanup
  %13 = extractvalue { ptr, i32 } %12, 0
  store ptr %13, ptr %5, align 8
  %14 = extractvalue { ptr, i32 } %12, 1
  store i32 %14, ptr %6, align 4
  call void @_ZN6icu_777UObjectD2Ev(ptr noundef nonnull align 8 dereferenceable(8) %7) #10
  br label %15

15:                                               ; preds = %11
  %16 = load ptr, ptr %5, align 8
  %17 = load i32, ptr %6, align 4
  %18 = insertvalue { ptr, i32 } poison, ptr %16, 0
  %19 = insertvalue { ptr, i32 } %18, i32 %17, 1
  resume { ptr, i32 } %19
}