; Function Attrs: mustprogress uwtable
define void @_ZN6icu_7713ICUServiceKeyC2ERKNS_13UnicodeStringE(ptr noundef nonnull align 8 dereferenceable(72) initializes((0, 8)) %0, ptr noundef nonnull align 8 dereferenceable(64) %1) unnamed_addr #0 align 2 personality ptr @__gxx_personality_v0 {
  store ptr getelementptr inbounds nuw inrange(-16, 80) (i8, ptr @_ZTVN6icu_7713ICUServiceKeyE, i64 16), ptr %0, align 8, !tbaa !3
  %3 = getelementptr inbounds nuw i8, ptr %0, i64 8
  invoke void @_ZN6icu_7713UnicodeStringC1ERKS0_(ptr noundef nonnull align 8 dereferenceable(64) %3, ptr noundef nonnull align 8 dereferenceable(64) %1)
          to label %4 unwind label %5

4:                                                ; preds = %2
  ret void

5:                                                ; preds = %2
  %6 = landingpad { ptr, i32 }
          cleanup
  tail call void @_ZN6icu_777UObjectD2Ev(ptr noundef nonnull align 8 dereferenceable(8) %0) #17
  resume { ptr, i32 } %6
}